target datalayout = "e-m:e-p270:32:32-p271:32:32-p272:64:64-i64:64-i128:128-f80:128-n8:16:32:64-S128"
target triple = "x86_64-pc-linux-gnu"

%struct.XPoint = type { i16, i16 }
%struct.JNINativeInterface_ = type { ptr, ptr, ptr, ptr, ptr, ptr, ptr, ptr, ptr, ptr, ptr, ptr, ptr, ptr, ptr, ptr, ptr, ptr, ptr, ptr, ptr, ptr, ptr, ptr, ptr, ptr, ptr, ptr, ptr, ptr, ptr, ptr, ptr, ptr, ptr, ptr, ptr, ptr, ptr, ptr, ptr, ptr, ptr, ptr, ptr, ptr, ptr, ptr, ptr, ptr, ptr, ptr, ptr, ptr, ptr, ptr, ptr, ptr, ptr, ptr, ptr, ptr, ptr, ptr, ptr, ptr, ptr, ptr, ptr, ptr, ptr, ptr, ptr, ptr, ptr, ptr, ptr, ptr, ptr, ptr, ptr, ptr, ptr, ptr, ptr, ptr, ptr, ptr, ptr, ptr, ptr, ptr, ptr, ptr, ptr, ptr, ptr, ptr, ptr, ptr, ptr, ptr, ptr, ptr, ptr, ptr, ptr, ptr, ptr, ptr, ptr, ptr, ptr, ptr, ptr, ptr, ptr, ptr, ptr, ptr, ptr, ptr, ptr, ptr, ptr, ptr, ptr, ptr, ptr, ptr, ptr, ptr, ptr, ptr, ptr, ptr, ptr, ptr, ptr, ptr, ptr, ptr, ptr, ptr, ptr, ptr, ptr, ptr, ptr, ptr, ptr, ptr, ptr, ptr, ptr, ptr, ptr, ptr, ptr, ptr, ptr, ptr, ptr, ptr, ptr, ptr, ptr, ptr, ptr, ptr, ptr, ptr, ptr, ptr, ptr, ptr, ptr, ptr, ptr, ptr, ptr, ptr, ptr, ptr, ptr, ptr, ptr, ptr, ptr, ptr, ptr, ptr, ptr, ptr, ptr, ptr, ptr, ptr, ptr, ptr, ptr, ptr, ptr, ptr, ptr, ptr, ptr, ptr, ptr, ptr, ptr, ptr, ptr, ptr, ptr, ptr, ptr, ptr, ptr, ptr, ptr, ptr, ptr, ptr, ptr, ptr, ptr, ptr, ptr, ptr, ptr, ptr, ptr, ptr, ptr }

; Function Attrs: nounwind uwtable
define internal ptr @transformPoints(ptr noundef %0, ptr noundef %1, ptr noundef %2, i32 noundef %3, i32 noundef %4, ptr noundef %5, ptr noundef %6, i32 noundef %7) #0 {
  %9 = alloca ptr, align 8
  %10 = alloca ptr, align 8
  %11 = alloca ptr, align 8
  %12 = alloca ptr, align 8
  %13 = alloca i32, align 4
  %14 = alloca i32, align 4
  %15 = alloca ptr, align 8
  %16 = alloca ptr, align 8
  %17 = alloca i32, align 4
  %18 = alloca i32, align 4
  %19 = alloca ptr, align 8
  %20 = alloca ptr, align 8
  %21 = alloca i32, align 4
  %22 = alloca i32, align 4
  %23 = alloca i32, align 4
  %24 = alloca i32, align 4
  %25 = alloca i32, align 4
  %26 = alloca i32, align 4
  store ptr %0, ptr %10, align 8
  store ptr %1, ptr %11, align 8
  store ptr %2, ptr %12, align 8
  store i32 %3, ptr %13, align 4
  store i32 %4, ptr %14, align 4
  store ptr %5, ptr %15, align 8
  store ptr %6, ptr %16, align 8
  store i32 %7, ptr %17, align 4
  %27 = load ptr, ptr %16, align 8
  %28 = load i32, ptr %27, align 4
  store i32 %28, ptr %18, align 4
  %29 = load ptr, ptr %10, align 8
  %30 = load ptr, ptr %29, align 8
  %31 = getelementptr inbounds %struct.JNINativeInterface_, ptr %30, i32 0, i32 222
  %32 = load ptr, ptr %31, align 8
  %33 = load ptr, ptr %10, align 8
  %34 = load ptr, ptr %11, align 8
  %35 = call ptr %32(ptr noundef %33, ptr noundef %34, ptr noundef null)
  store ptr %35, ptr %19, align 8
  %36 = load ptr, ptr %19, align 8
  %37 = icmp eq ptr %36, null
  br i1 %37, label %38, label %39

38:                                               ; preds = %8
  store ptr null, ptr %9, align 8
  br label %311

39:                                               ; preds = %8
  %40 = load ptr, ptr %10, align 8
  %41 = load ptr, ptr %40, align 8
  %42 = getelementptr inbounds %struct.JNINativeInterface_, ptr %41, i32 0, i32 222
  %43 = load ptr, ptr %42, align 8
  %44 = load ptr, ptr %10, align 8
  %45 = load ptr, ptr %12, align 8
  %46 = call ptr %43(ptr noundef %44, ptr noundef %45, ptr noundef null)
  store ptr %46, ptr %20, align 8
  %47 = load ptr, ptr %20, align 8
  %48 = icmp eq ptr %47, null
  br i1 %48, label %49, label %57

49:                                               ; preds = %39
  %50 = load ptr, ptr %10, align 8
  %51 = load ptr, ptr %50, align 8
  %52 = getelementptr inbounds %struct.JNINativeInterface_, ptr %51, i32 0, i32 223
  %53 = load ptr, ptr %52, align 8
  %54 = load ptr, ptr %10, align 8
  %55 = load ptr, ptr %11, align 8
  %56 = load ptr, ptr %19, align 8
  call void %53(ptr noundef %54, ptr noundef %55, ptr noundef %56, i32 noundef 2)
  store ptr null, ptr %9, align 8
  br label %311

57:                                               ; preds = %39
  %58 = load i32, ptr %17, align 4
  %59 = icmp ne i32 %58, 0
  br i1 %59, label %60, label %91

60:                                               ; preds = %57
  %61 = load ptr, ptr %19, align 8
  %62 = load i32, ptr %18, align 4
  %63 = sub nsw i32 %62, 1
  %64 = sext i32 %63 to i64
  %65 = getelementptr inbounds i32, ptr %61, i64 %64
  %66 = load i32, ptr %65, align 4
  %67 = load ptr, ptr %19, align 8
  %68 = getelementptr inbounds i32, ptr %67, i64 0
  %69 = load i32, ptr %68, align 4
  %70 = icmp ne i32 %66, %69
  br i1 %70, label %82, label %71

71:                                               ; preds = %60
  %72 = load ptr, ptr %20, align 8
  %73 = load i32, ptr %18, align 4
  %74 = sub nsw i32 %73, 1
  %75 = sext i32 %74 to i64
  %76 = getelementptr inbounds i32, ptr %72, i64 %75
  %77 = load i32, ptr %76, align 4
  %78 = load ptr, ptr %20, align 8
  %79 = getelementptr inbounds i32, ptr %78, i64 0
  %80 = load i32, ptr %79, align 4
  %81 = icmp ne i32 %77, %80
  br label %82

82:                                               ; preds = %71, %60
  %83 = phi i1 [ true, %60 ], [ %81, %71 ]
  %84 = zext i1 %83 to i32
  store i32 %84, ptr %17, align 4
  %85 = load i32, ptr %17, align 4
  %86 = icmp ne i32 %85, 0
  br i1 %86, label %87, label %90

87:                                               ; preds = %82
  %88 = load i32, ptr %18, align 4
  %89 = add nsw i32 %88, 1
  store i32 %89, ptr %18, align 4
  br label %90

90:                                               ; preds = %87, %82
  br label %91

91:                                               ; preds = %90, %57
  %92 = load i32, ptr %18, align 4
  %93 = icmp sgt i32 %92, 64
  br i1 %93, label %94, label %99

94:                                               ; preds = %91
  %95 = load i32, ptr %18, align 4
  %96 = sext i32 %95 to i64
  %97 = mul i64 4, %96
  %98 = call noalias ptr @malloc(i64 noundef %97) #9
  store ptr %98, ptr %15, align 8
  br label %99

99:                                               ; preds = %94, %91
  %100 = load ptr, ptr %15, align 8
  %101 = icmp ne ptr %100, null
  br i1 %101, label %102, label %295

102:                                              ; preds = %99
  %103 = load ptr, ptr %19, align 8
  %104 = getelementptr inbounds i32, ptr %103, i64 0
  %105 = load i32, ptr %104, align 4
  %106 = load i32, ptr %13, align 4
  %107 = add nsw i32 %105, %106
  %108 = icmp sgt i32 %107, 32767
  br i1 %108, label %109, label %110

109:                                              ; preds = %102
  br label %126

110:                                              ; preds = %102
  %111 = load ptr, ptr %19, align 8
  %112 = getelementptr inbounds i32, ptr %111, i64 0
  %113 = load i32, ptr %112, align 4
  %114 = load i32, ptr %13, align 4
  %115 = add nsw i32 %113, %114
  %116 = icmp slt i32 %115, -32768
  br i1 %116, label %117, label %118

117:                                              ; preds = %110
  br label %124

118:                                              ; preds = %110
  %119 = load ptr, ptr %19, align 8
  %120 = getelementptr inbounds i32, ptr %119, i64 0
  %121 = load i32, ptr %120, align 4
  %122 = load i32, ptr %13, align 4
  %123 = add nsw i32 %121, %122
  br label %124

124:                                              ; preds = %118, %117
  %125 = phi i32 [ -32768, %117 ], [ %123, %118 ]
  br label %126

126:                                              ; preds = %124, %109
  %127 = phi i32 [ 32767, %109 ], [ %125, %124 ]
  store i32 %127, ptr %23, align 4
  %128 = load ptr, ptr %20, align 8
  %129 = getelementptr inbounds i32, ptr %128, i64 0
  %130 = load i32, ptr %129, align 4
  %131 = load i32, ptr %14, align 4
  %132 = add nsw i32 %130, %131
  %133 = icmp sgt i32 %132, 32767
  br i1 %133, label %134, label %135

134:                                              ; preds = %126
  br label %151

135:                                              ; preds = %126
  %136 = load ptr, ptr %20, align 8
  %137 = getelementptr inbounds i32, ptr %136, i64 0
  %138 = load i32, ptr %137, align 4
  %139 = load i32, ptr %14, align 4
  %140 = add nsw i32 %138, %139
  %141 = icmp slt i32 %140, -32768
  br i1 %141, label %142, label %143

142:                                              ; preds = %135
  br label %149

143:                                              ; preds = %135
  %144 = load ptr, ptr %20, align 8
  %145 = getelementptr inbounds i32, ptr %144, i64 0
  %146 = load i32, ptr %145, align 4
  %147 = load i32, ptr %14, align 4
  %148 = add nsw i32 %146, %147
  br label %149

149:                                              ; preds = %143, %142
  %150 = phi i32 [ -32768, %142 ], [ %148, %143 ]
  br label %151

151:                                              ; preds = %149, %134
  %152 = phi i32 [ 32767, %134 ], [ %150, %149 ]
  store i32 %152, ptr %24, align 4
  %153 = load i32, ptr %23, align 4
  %154 = trunc i32 %153 to i16
  %155 = load ptr, ptr %15, align 8
  %156 = getelementptr inbounds %struct.XPoint, ptr %155, i64 0
  %157 = getelementptr inbounds %struct.XPoint, ptr %156, i32 0, i32 0
  store i16 %154, ptr %157, align 2
  %158 = load i32, ptr %24, align 4
  %159 = trunc i32 %158 to i16
  %160 = load ptr, ptr %15, align 8
  %161 = getelementptr inbounds %struct.XPoint, ptr %160, i64 0
  %162 = getelementptr inbounds %struct.XPoint, ptr %161, i32 0, i32 1
  store i16 %159, ptr %162, align 2
  %163 = load i32, ptr %17, align 4
  %164 = icmp ne i32 %163, 0
  br i1 %164, label %165, label %168

165:                                              ; preds = %151
  %166 = load i32, ptr %18, align 4
  %167 = add nsw i32 %166, -1
  store i32 %167, ptr %18, align 4
  br label %168

168:                                              ; preds = %165, %151
  store i32 1, ptr %21, align 4
  store i32 1, ptr %22, align 4
  br label %169

169:                                              ; preds = %263, %168
  %170 = load i32, ptr %21, align 4
  %171 = load i32, ptr %18, align 4
  %172 = icmp slt i32 %170, %171
  br i1 %172, label %173, label %266

173:                                              ; preds = %169
  %174 = load ptr, ptr %19, align 8
  %175 = load i32, ptr %21, align 4
  %176 = sext i32 %175 to i64
  %177 = getelementptr inbounds i32, ptr %174, i64 %176
  %178 = load i32, ptr %177, align 4
  %179 = load i32, ptr %13, align 4
  %180 = add nsw i32 %178, %179
  %181 = icmp sgt i32 %180, 32767
  br i1 %181, label %182, label %183

182:                                              ; preds = %173
  br label %203

183:                                              ; preds = %173
  %184 = load ptr, ptr %19, align 8
  %185 = load i32, ptr %21, align 4
  %186 = sext i32 %185 to i64
  %187 = getelementptr inbounds i32, ptr %184, i64 %186
  %188 = load i32, ptr %187, align 4
  %189 = load i32, ptr %13, align 4
  %190 = add nsw i32 %188, %189
  %191 = icmp slt i32 %190, -32768
  br i1 %191, label %192, label %193

192:                                              ; preds = %183
  br label %201

193:                                              ; preds = %183
  %194 = load ptr, ptr %19, align 8
  %195 = load i32, ptr %21, align 4
  %196 = sext i32 %195 to i64
  %197 = getelementptr inbounds i32, ptr %194, i64 %196
  %198 = load i32, ptr %197, align 4
  %199 = load i32, ptr %13, align 4
  %200 = add nsw i32 %198, %199
  br label %201

201:                                              ; preds = %193, %192
  %202 = phi i32 [ -32768, %192 ], [ %200, %193 ]
  br label %203

203:                                              ; preds = %201, %182
  %204 = phi i32 [ 32767, %182 ], [ %202, %201 ]
  store i32 %204, ptr %25, align 4
  %205 = load ptr, ptr %20, align 8
  %206 = load i32, ptr %21, align 4
  %207 = sext i32 %206 to i64
  %208 = getelementptr inbounds i32, ptr %205, i64 %207
  %209 = load i32, ptr %208, align 4
  %210 = load i32, ptr %14, align 4
  %211 = add nsw i32 %209, %210
  %212 = icmp sgt i32 %211, 32767
  br i1 %212, label %213, label %214

213:                                              ; preds = %203
  br label %234

214:                                              ; preds = %203
  %215 = load ptr, ptr %20, align 8
  %216 = load i32, ptr %21, align 4
  %217 = sext i32 %216 to i64
  %218 = getelementptr inbounds i32, ptr %215, i64 %217
  %219 = load i32, ptr %218, align 4
  %220 = load i32, ptr %14, align 4
  %221 = add nsw i32 %219, %220
  %222 = icmp slt i32 %221, -32768
  br i1 %222, label %223, label %224

223:                                              ; preds = %214
  br label %232

224:                                              ; preds = %214
  %225 = load ptr, ptr %20, align 8
  %226 = load i32, ptr %21, align 4
  %227 = sext i32 %226 to i64
  %228 = getelementptr inbounds i32, ptr %225, i64 %227
  %229 = load i32, ptr %228, align 4
  %230 = load i32, ptr %14, align 4
  %231 = add nsw i32 %229, %230
  br label %232

232:                                              ; preds = %224, %223
  %233 = phi i32 [ -32768, %223 ], [ %231, %224 ]
  br label %234

234:                                              ; preds = %232, %213
  %235 = phi i32 [ 32767, %213 ], [ %233, %232 ]
  store i32 %235, ptr %26, align 4
  %236 = load i32, ptr %25, align 4
  %237 = load i32, ptr %23, align 4
  %238 = icmp ne i32 %236, %237
  br i1 %238, label %243, label %239

239:                                              ; preds = %234
  %240 = load i32, ptr %26, align 4
  %241 = load i32, ptr %24, align 4
  %242 = icmp ne i32 %240, %241
  br i1 %242, label %243, label %262

243:                                              ; preds = %239, %234
  %244 = load i32, ptr %25, align 4
  %245 = trunc i32 %244 to i16
  %246 = load ptr, ptr %15, align 8
  %247 = load i32, ptr %22, align 4
  %248 = sext i32 %247 to i64
  %249 = getelementptr inbounds %struct.XPoint, ptr %246, i64 %248
  %250 = getelementptr inbounds %struct.XPoint, ptr %249, i32 0, i32 0
  store i16 %245, ptr %250, align 2
  %251 = load i32, ptr %26, align 4
  %252 = trunc i32 %251 to i16
  %253 = load ptr, ptr %15, align 8
  %254 = load i32, ptr %22, align 4
  %255 = sext i32 %254 to i64
  %256 = getelementptr inbounds %struct.XPoint, ptr %253, i64 %255
  %257 = getelementptr inbounds %struct.XPoint, ptr %256, i32 0, i32 1
  store i16 %252, ptr %257, align 2
  %258 = load i32, ptr %22, align 4
  %259 = add nsw i32 %258, 1
  store i32 %259, ptr %22, align 4
  %260 = load i32, ptr %25, align 4
  store i32 %260, ptr %23, align 4
  %261 = load i32, ptr %26, align 4
  store i32 %261, ptr %24, align 4
  br label %262

262:                                              ; preds = %243, %239
  br label %263

263:                                              ; preds = %262
  %264 = load i32, ptr %21, align 4
  %265 = add nsw i32 %264, 1
  store i32 %265, ptr %21, align 4
  br label %169, !llvm.loop !6

266:                                              ; preds = %169
  %267 = load i32, ptr %22, align 4
  %268 = icmp eq i32 %267, 1
  br i1 %268, label %269, label %280

269:                                              ; preds = %266
  %270 = load i32, ptr %23, align 4
  %271 = trunc i32 %270 to i16
  %272 = load ptr, ptr %15, align 8
  %273 = getelementptr inbounds %struct.XPoint, ptr %272, i64 1
  %274 = getelementptr inbounds %struct.XPoint, ptr %273, i32 0, i32 0
  store i16 %271, ptr %274, align 2
  %275 = load i32, ptr %24, align 4
  %276 = trunc i32 %275 to i16
  %277 = load ptr, ptr %15, align 8
  %278 = getelementptr inbounds %struct.XPoint, ptr %277, i64 1
  %279 = getelementptr inbounds %struct.XPoint, ptr %278, i32 0, i32 1
  store i16 %276, ptr %279, align 2
  store i32 2, ptr %22, align 4
  br label %292

280:                                              ; preds = %266
  %281 = load i32, ptr %17, align 4
  %282 = icmp ne i32 %281, 0
  br i1 %282, label %283, label %291

283:                                              ; preds = %280
  %284 = load ptr, ptr %15, align 8
  %285 = load i32, ptr %22, align 4
  %286 = add nsw i32 %285, 1
  store i32 %286, ptr %22, align 4
  %287 = sext i32 %285 to i64
  %288 = getelementptr inbounds %struct.XPoint, ptr %284, i64 %287
  %289 = load ptr, ptr %15, align 8
  %290 = getelementptr inbounds %struct.XPoint, ptr %289, i64 0
  call void @llvm.memcpy.p0.p0.i64(ptr align 2 %288, ptr align 2 %290, i64 4, i1 false)
  br label %291

291:                                              ; preds = %283, %280
  br label %292

292:                                              ; preds = %291, %269
  %293 = load i32, ptr %22, align 4
  %294 = load ptr, ptr %16, align 8
  store i32 %293, ptr %294, align 4
  br label %295

295:                                              ; preds = %292, %99
  %296 = load ptr, ptr %10, align 8
  %297 = load ptr, ptr %296, align 8
  %298 = getelementptr inbounds %struct.JNINativeInterface_, ptr %297, i32 0, i32 223
  %299 = load ptr, ptr %298, align 8
  %300 = load ptr, ptr %10, align 8
  %301 = load ptr, ptr %11, align 8
  %302 = load ptr, ptr %19, align 8
  call void %299(ptr noundef %300, ptr noundef %301, ptr noundef %302, i32 noundef 2)
  %303 = load ptr, ptr %10, align 8
  %304 = load ptr, ptr %303, align 8
  %305 = getelementptr inbounds %struct.JNINativeInterface_, ptr %304, i32 0, i32 223
  %306 = load ptr, ptr %305, align 8
  %307 = load ptr, ptr %10, align 8
  %308 = load ptr, ptr %12, align 8
  %309 = load ptr, ptr %20, align 8
  call void %306(ptr noundef %307, ptr noundef %308, ptr noundef %309, i32 noundef 2)
  %310 = load ptr, ptr %15, align 8
  store ptr %310, ptr %9, align 8
  br label %311

311:                                              ; preds = %295, %49, %38
  %312 = load ptr, ptr %9, align 8
  ret ptr %312
}