; Function Attrs: nounwind uwtable
define internal fastcc noundef ptr @transformPoints(ptr noundef %0, ptr noundef %1, ptr noundef %2, i32 noundef %3, i32 noundef %4, ptr noundef %5, ptr nocapture noundef %6, i32 noundef %7) unnamed_addr #0 {
  %9 = load i32, ptr %6, align 4
  %10 = load ptr, ptr %0, align 8
  %11 = getelementptr inbounds i8, ptr %10, i64 1776
  %12 = load ptr, ptr %11, align 8
  %13 = tail call ptr %12(ptr noundef nonnull %0, ptr noundef %1, ptr noundef null) #10
  %14 = icmp eq ptr %13, null
  br i1 %14, label %93, label %15

15:                                               ; preds = %8
  %16 = load ptr, ptr %0, align 8
  %17 = getelementptr inbounds i8, ptr %16, i64 1776
  %18 = load ptr, ptr %17, align 8
  %19 = tail call ptr %18(ptr noundef nonnull %0, ptr noundef %2, ptr noundef null) #10
  %20 = icmp eq ptr %19, null
  br i1 %20, label %21, label %25

21:                                               ; preds = %15
  %22 = load ptr, ptr %0, align 8
  %23 = getelementptr inbounds i8, ptr %22, i64 1784
  %24 = load ptr, ptr %23, align 8
  tail call void %24(ptr noundef nonnull %0, ptr noundef %1, ptr noundef nonnull %13, i32 noundef 2) #10
  br label %93

25:                                               ; preds = %15
  %.not = icmp eq i32 %7, 0
  br i1 %.not, label %39, label %26

26:                                               ; preds = %25
  %27 = add nsw i32 %9, -1
  %28 = sext i32 %27 to i64
  %29 = getelementptr inbounds i32, ptr %13, i64 %28
  %30 = load i32, ptr %29, align 4
  %31 = load i32, ptr %13, align 4
  %.not114 = icmp eq i32 %30, %31
  br i1 %.not114, label %33, label %.thread

.thread:                                          ; preds = %26
  %32 = add nsw i32 %9, 1
  br label %39

33:                                               ; preds = %26
  %34 = getelementptr inbounds i32, ptr %19, i64 %28
  %35 = load i32, ptr %34, align 4
  %36 = load i32, ptr %19, align 4
  %37 = icmp ne i32 %35, %36
  %cond.fr = freeze i1 %37
  %38 = zext i1 %cond.fr to i32
  %spec.select = add nsw i32 %9, %38
  br label %39

39:                                               ; preds = %33, %.thread, %25
  %.0105 = phi i32 [ %9, %25 ], [ %32, %.thread ], [ %spec.select, %33 ]
  %.0104.shrunk = phi i1 [ false, %25 ], [ true, %.thread ], [ %cond.fr, %33 ]
  %40 = icmp sgt i32 %.0105, 64
  br i1 %40, label %41, label %45

41:                                               ; preds = %39
  %42 = zext nneg i32 %.0105 to i64
  %43 = shl nuw nsw i64 %42, 2
  %44 = tail call noalias ptr @malloc(i64 noundef %43) #11
  br label %45

45:                                               ; preds = %41, %39
  %.097 = phi ptr [ %44, %41 ], [ %5, %39 ]
  %.not115 = icmp eq ptr %.097, null
  br i1 %.not115, label %86, label %46

46:                                               ; preds = %45
  %47 = load i32, ptr %13, align 4
  %48 = add nsw i32 %47, %3
  %spec.select118 = tail call i32 @llvm.smax.i32(i32 %48, i32 -32768)
  %49 = tail call i32 @llvm.smin.i32(i32 %spec.select118, i32 32767)
  %50 = load i32, ptr %19, align 4
  %51 = add nsw i32 %50, %4
  %spec.select119 = tail call i32 @llvm.smax.i32(i32 %51, i32 -32768)
  %52 = tail call i32 @llvm.smin.i32(i32 %spec.select119, i32 32767)
  %53 = trunc nsw i32 %49 to i16
  store i16 %53, ptr %.097, align 2
  %54 = trunc nsw i32 %52 to i16
  %55 = getelementptr inbounds i8, ptr %.097, i64 2
  store i16 %54, ptr %55, align 2
  %56 = sext i1 %.0104.shrunk to i32
  %spec.select120 = add nsw i32 %.0105, %56
  %57 = icmp sgt i32 %spec.select120, 1
  br i1 %57, label %.lr.ph.preheader, label %._crit_edge.thread

.lr.ph.preheader:                                 ; preds = %46
  %wide.trip.count = zext nneg i32 %spec.select120 to i64
  br label %.lr.ph

.lr.ph:                                           ; preds = %.lr.ph.preheader, %73
  %indvars.iv = phi i64 [ 1, %.lr.ph.preheader ], [ %indvars.iv.next, %73 ]
  %.098127 = phi i32 [ %52, %.lr.ph.preheader ], [ %.1, %73 ]
  %.099126 = phi i32 [ %49, %.lr.ph.preheader ], [ %.1100, %73 ]
  %.0101125 = phi i32 [ 1, %.lr.ph.preheader ], [ %.1102, %73 ]
  %58 = getelementptr inbounds i32, ptr %13, i64 %indvars.iv
  %59 = load i32, ptr %58, align 4
  %60 = add nsw i32 %59, %3
  %spec.select121 = tail call i32 @llvm.smax.i32(i32 %60, i32 -32768)
  %61 = tail call i32 @llvm.smin.i32(i32 %spec.select121, i32 32767)
  %62 = getelementptr inbounds i32, ptr %19, i64 %indvars.iv
  %63 = load i32, ptr %62, align 4
  %64 = add nsw i32 %63, %4
  %spec.select122 = tail call i32 @llvm.smax.i32(i32 %64, i32 -32768)
  %65 = tail call i32 @llvm.smin.i32(i32 %spec.select122, i32 32767)
  %.not116 = icmp eq i32 %61, %.099126
  %.not117 = icmp eq i32 %65, %.098127
  %or.cond = select i1 %.not116, i1 %.not117, i1 false
  br i1 %or.cond, label %73, label %66

66:                                               ; preds = %.lr.ph
  %67 = trunc nsw i32 %61 to i16
  %68 = sext i32 %.0101125 to i64
  %69 = getelementptr inbounds %struct.XPoint, ptr %.097, i64 %68
  store i16 %67, ptr %69, align 2
  %70 = trunc nsw i32 %65 to i16
  %71 = getelementptr inbounds i8, ptr %69, i64 2
  store i16 %70, ptr %71, align 2
  %72 = add nsw i32 %.0101125, 1
  br label %73

73:                                               ; preds = %.lr.ph, %66
  %.1102 = phi i32 [ %72, %66 ], [ %.0101125, %.lr.ph ]
  %.1100 = phi i32 [ %61, %66 ], [ %.099126, %.lr.ph ]
  %.1 = phi i32 [ %65, %66 ], [ %.098127, %.lr.ph ]
  %indvars.iv.next = add nuw nsw i64 %indvars.iv, 1
  %exitcond.not = icmp eq i64 %indvars.iv.next, %wide.trip.count
  br i1 %exitcond.not, label %._crit_edge, label %.lr.ph, !llvm.loop !6

._crit_edge:                                      ; preds = %73
  %74 = icmp eq i32 %.1102, 1
  br i1 %74, label %._crit_edge.thread, label %79

._crit_edge.thread:                               ; preds = %46, %._crit_edge
  %.098.lcssa135 = phi i32 [ %.1, %._crit_edge ], [ %52, %46 ]
  %.099.lcssa134 = phi i32 [ %.1100, %._crit_edge ], [ %49, %46 ]
  %75 = trunc nsw i32 %.099.lcssa134 to i16
  %76 = getelementptr inbounds i8, ptr %.097, i64 4
  store i16 %75, ptr %76, align 2
  %77 = trunc nsw i32 %.098.lcssa135 to i16
  %78 = getelementptr inbounds i8, ptr %.097, i64 6
  store i16 %77, ptr %78, align 2
  br label %85

79:                                               ; preds = %._crit_edge
  br i1 %.0104.shrunk, label %80, label %85

80:                                               ; preds = %79
  %81 = add nsw i32 %.1102, 1
  %82 = sext i32 %.1102 to i64
  %83 = getelementptr inbounds %struct.XPoint, ptr %.097, i64 %82
  %84 = load i32, ptr %.097, align 2
  store i32 %84, ptr %83, align 2
  br label %85

85:                                               ; preds = %79, %80, %._crit_edge.thread
  %.2 = phi i32 [ 2, %._crit_edge.thread ], [ %81, %80 ], [ %.1102, %79 ]
  store i32 %.2, ptr %6, align 4
  br label %86

86:                                               ; preds = %85, %45
  %87 = load ptr, ptr %0, align 8
  %88 = getelementptr inbounds i8, ptr %87, i64 1784
  %89 = load ptr, ptr %88, align 8
  tail call void %89(ptr noundef nonnull %0, ptr noundef %1, ptr noundef nonnull %13, i32 noundef 2) #10
  %90 = load ptr, ptr %0, align 8
  %91 = getelementptr inbounds i8, ptr %90, i64 1784
  %92 = load ptr, ptr %91, align 8
  tail call void %92(ptr noundef nonnull %0, ptr noundef %2, ptr noundef nonnull %19, i32 noundef 2) #10
  br label %93

93:                                               ; preds = %8, %86, %21
  %.0 = phi ptr [ null, %21 ], [ %.097, %86 ], [ null, %8 ]
  ret ptr %.0
}